; Function Attrs: mustprogress uwtable
define dso_local void @_ZN4Luau7CodeGen3A6418AssemblyBuilderA643orrENS1_11RegisterA64ES3_j(ptr noundef nonnull align 8 dereferenceable(176) %0, i8 %1, i8 %2, i32 noundef %3) local_unnamed_addr #0 align 2 {
  %5 = getelementptr inbounds nuw i8, ptr %0, i64 80
  %6 = load i8, ptr %5, align 8, !tbaa !14, !range !46, !noundef !47
  %7 = trunc nuw i8 %6 to i1
  br i1 %7, label %8, label %9

8:                                                ; preds = %4
  tail call void @_ZN4Luau7CodeGen3A6418AssemblyBuilderA643logEPKcNS1_11RegisterA64ES5_i(ptr noundef nonnull align 8 dereferenceable(176) %0, ptr noundef nonnull @.str.11, i8 %1, i8 %2, i32 noundef %3)
  br label %9

9:                                                ; preds = %8, %4
  %10 = and i8 %1, 7
  %11 = icmp eq i8 %10, 2
  %12 = tail call noundef range(i32 0, 33) i32 @llvm.ctlz.i32(i32 %3, i1 false)
  %13 = tail call noundef range(i32 0, 33) i32 @llvm.cttz.i32(i32 %3, i1 false)
  %14 = add nuw nsw i32 %12, %13
  %15 = lshr i8 %1, 3
  %16 = zext nneg i8 %15 to i32
  %17 = lshr i8 %2, 3
  %18 = zext nneg i8 %17 to i32
  %19 = shl nuw nsw i32 %18, 5
  %20 = or disjoint i32 %19, %16
  %reass.sub.i = or disjoint i32 %20, 31744
  %21 = shl nuw nsw i32 %14, 10
  %22 = sub nsw i32 %reass.sub.i, %21
  %.neg.i = mul nuw nsw i32 %13, 2031616
  %23 = and i32 %.neg.i, 2031616
  %24 = select i1 %11, i32 -1308622848, i32 838860800
  %25 = or disjoint i32 %24, %23
  %26 = or i32 %25, %22
  %27 = getelementptr inbounds nuw i8, ptr %0, i64 160
  %28 = load ptr, ptr %27, align 8, !tbaa !39
  %29 = getelementptr inbounds nuw i8, ptr %28, i64 4
  store ptr %29, ptr %27, align 8, !tbaa !39
  store i32 %26, ptr %28, align 4, !tbaa !48
  %30 = getelementptr inbounds nuw i8, ptr %0, i64 168
  %31 = load ptr, ptr %30, align 8, !tbaa !40
  %32 = icmp eq ptr %31, %29
  br i1 %32, label %33, label %_ZN4Luau7CodeGen3A6418AssemblyBuilderA647placeBMEPKcNS1_11RegisterA64ES5_jh.exit

33:                                               ; preds = %9
  tail call void @_ZN4Luau7CodeGen3A6418AssemblyBuilderA646extendEv(ptr noundef nonnull align 8 dereferenceable(176) %0)
  br label %_ZN4Luau7CodeGen3A6418AssemblyBuilderA647placeBMEPKcNS1_11RegisterA64ES5_jh.exit

_ZN4Luau7CodeGen3A6418AssemblyBuilderA647placeBMEPKcNS1_11RegisterA64ES5_jh.exit: ; preds = %9, %33
  ret void
}